target datalayout = "e-m:e-p270:32:32-p271:32:32-p272:64:64-i64:64-i128:128-f80:128-n8:16:32:64-S128"
target triple = "x86_64-pc-linux-gnu"

%struct.DAUDIO_Info = type { ptr, i32, i32, i32, i32, i32, i32, ptr, i32 }
%struct.JNINativeInterface_ = type { ptr, ptr, ptr, ptr, ptr, ptr, ptr, ptr, ptr, ptr, ptr, ptr, ptr, ptr, ptr, ptr, ptr, ptr, ptr, ptr, ptr, ptr, ptr, ptr, ptr, ptr, ptr, ptr, ptr, ptr, ptr, ptr, ptr, ptr, ptr, ptr, ptr, ptr, ptr, ptr, ptr, ptr, ptr, ptr, ptr, ptr, ptr, ptr, ptr, ptr, ptr, ptr, ptr, ptr, ptr, ptr, ptr, ptr, ptr, ptr, ptr, ptr, ptr, ptr, ptr, ptr, ptr, ptr, ptr, ptr, ptr, ptr, ptr, ptr, ptr, ptr, ptr, ptr, ptr, ptr, ptr, ptr, ptr, ptr, ptr, ptr, ptr, ptr, ptr, ptr, ptr, ptr, ptr, ptr, ptr, ptr, ptr, ptr, ptr, ptr, ptr, ptr, ptr, ptr, ptr, ptr, ptr, ptr, ptr, ptr, ptr, ptr, ptr, ptr, ptr, ptr, ptr, ptr, ptr, ptr, ptr, ptr, ptr, ptr, ptr, ptr, ptr, ptr, ptr, ptr, ptr, ptr, ptr, ptr, ptr, ptr, ptr, ptr, ptr, ptr, ptr, ptr, ptr, ptr, ptr, ptr, ptr, ptr, ptr, ptr, ptr, ptr, ptr, ptr, ptr, ptr, ptr, ptr, ptr, ptr, ptr, ptr, ptr, ptr, ptr, ptr, ptr, ptr, ptr, ptr, ptr, ptr, ptr, ptr, ptr, ptr, ptr, ptr, ptr, ptr, ptr, ptr, ptr, ptr, ptr, ptr, ptr, ptr, ptr, ptr, ptr, ptr, ptr, ptr, ptr, ptr, ptr, ptr, ptr, ptr, ptr, ptr, ptr, ptr, ptr, ptr, ptr, ptr, ptr, ptr, ptr, ptr, ptr, ptr, ptr, ptr, ptr, ptr, ptr, ptr, ptr, ptr, ptr, ptr, ptr, ptr, ptr, ptr, ptr, ptr, ptr, ptr, ptr, ptr, ptr }

; Function Attrs: nounwind uwtable
define hidden void @handleSignEndianConversion(ptr noundef %0, ptr noundef %1, i32 noundef %2, i32 noundef %3) #0 {
  %5 = alloca ptr, align 8
  %6 = alloca ptr, align 8
  %7 = alloca i32, align 4
  %8 = alloca i32, align 4
  %9 = alloca i8, align 1
  %10 = alloca i8, align 1
  %11 = alloca i8, align 1
  %12 = alloca i8, align 1
  store ptr %0, ptr %5, align 8
  store ptr %1, ptr %6, align 8
  store i32 %2, ptr %7, align 4
  store i32 %3, ptr %8, align 4
  %13 = load i32, ptr %8, align 4
  switch i32 %13, label %128 [
    i32 1, label %14
    i32 2, label %32
    i32 3, label %57
    i32 4, label %90
  ]

14:                                               ; preds = %4
  br label %15

15:                                               ; preds = %18, %14
  %16 = load i32, ptr %7, align 4
  %17 = icmp sgt i32 %16, 0
  br i1 %17, label %18, label %31

18:                                               ; preds = %15
  %19 = load ptr, ptr %5, align 8
  %20 = load i8, ptr %19, align 1
  %21 = sext i8 %20 to i32
  %22 = add nsw i32 %21, -128
  %23 = trunc i32 %22 to i8
  %24 = load ptr, ptr %6, align 8
  store i8 %23, ptr %24, align 1
  %25 = load i32, ptr %7, align 4
  %26 = add nsw i32 %25, -1
  store i32 %26, ptr %7, align 4
  %27 = load ptr, ptr %5, align 8
  %28 = getelementptr inbounds i8, ptr %27, i32 1
  store ptr %28, ptr %5, align 8
  %29 = load ptr, ptr %6, align 8
  %30 = getelementptr inbounds i8, ptr %29, i32 1
  store ptr %30, ptr %6, align 8
  br label %15, !llvm.loop !6

31:                                               ; preds = %15
  br label %129

32:                                               ; preds = %4
  %33 = load i32, ptr %7, align 4
  %34 = sdiv i32 %33, 2
  store i32 %34, ptr %7, align 4
  br label %35

35:                                               ; preds = %38, %32
  %36 = load i32, ptr %7, align 4
  %37 = icmp sgt i32 %36, 0
  br i1 %37, label %38, label %56

38:                                               ; preds = %35
  %39 = load ptr, ptr %5, align 8
  %40 = load i8, ptr %39, align 1
  store i8 %40, ptr %9, align 1
  %41 = load ptr, ptr %5, align 8
  %42 = getelementptr inbounds i8, ptr %41, i32 1
  store ptr %42, ptr %5, align 8
  %43 = load ptr, ptr %5, align 8
  %44 = load i8, ptr %43, align 1
  %45 = load ptr, ptr %6, align 8
  store i8 %44, ptr %45, align 1
  %46 = load ptr, ptr %6, align 8
  %47 = getelementptr inbounds i8, ptr %46, i32 1
  store ptr %47, ptr %6, align 8
  %48 = load i8, ptr %9, align 1
  %49 = load ptr, ptr %6, align 8
  store i8 %48, ptr %49, align 1
  %50 = load i32, ptr %7, align 4
  %51 = add nsw i32 %50, -1
  store i32 %51, ptr %7, align 4
  %52 = load ptr, ptr %5, align 8
  %53 = getelementptr inbounds i8, ptr %52, i32 1
  store ptr %53, ptr %5, align 8
  %54 = load ptr, ptr %6, align 8
  %55 = getelementptr inbounds i8, ptr %54, i32 1
  store ptr %55, ptr %6, align 8
  br label %35, !llvm.loop !8

56:                                               ; preds = %35
  br label %129

57:                                               ; preds = %4
  %58 = load i32, ptr %7, align 4
  %59 = sdiv i32 %58, 3
  store i32 %59, ptr %7, align 4
  br label %60

60:                                               ; preds = %63, %57
  %61 = load i32, ptr %7, align 4
  %62 = icmp sgt i32 %61, 0
  br i1 %62, label %63, label %89

63:                                               ; preds = %60
  %64 = load ptr, ptr %5, align 8
  %65 = load i8, ptr %64, align 1
  store i8 %65, ptr %10, align 1
  %66 = load ptr, ptr %5, align 8
  %67 = getelementptr inbounds i8, ptr %66, i64 2
  %68 = load i8, ptr %67, align 1
  %69 = load ptr, ptr %6, align 8
  store i8 %68, ptr %69, align 1
  %70 = load ptr, ptr %5, align 8
  %71 = getelementptr inbounds i8, ptr %70, i32 1
  store ptr %71, ptr %5, align 8
  %72 = load ptr, ptr %6, align 8
  %73 = getelementptr inbounds i8, ptr %72, i32 1
  store ptr %73, ptr %6, align 8
  %74 = load ptr, ptr %5, align 8
  %75 = load i8, ptr %74, align 1
  %76 = load ptr, ptr %6, align 8
  store i8 %75, ptr %76, align 1
  %77 = load ptr, ptr %5, align 8
  %78 = getelementptr inbounds i8, ptr %77, i32 1
  store ptr %78, ptr %5, align 8
  %79 = load ptr, ptr %6, align 8
  %80 = getelementptr inbounds i8, ptr %79, i32 1
  store ptr %80, ptr %6, align 8
  %81 = load i8, ptr %10, align 1
  %82 = load ptr, ptr %6, align 8
  store i8 %81, ptr %82, align 1
  %83 = load ptr, ptr %5, align 8
  %84 = getelementptr inbounds i8, ptr %83, i32 1
  store ptr %84, ptr %5, align 8
  %85 = load ptr, ptr %6, align 8
  %86 = getelementptr inbounds i8, ptr %85, i32 1
  store ptr %86, ptr %6, align 8
  %87 = load i32, ptr %7, align 4
  %88 = add nsw i32 %87, -1
  store i32 %88, ptr %7, align 4
  br label %60, !llvm.loop !9

89:                                               ; preds = %60
  br label %129

90:                                               ; preds = %4
  %91 = load i32, ptr %7, align 4
  %92 = sdiv i32 %91, 4
  store i32 %92, ptr %7, align 4
  br label %93

93:                                               ; preds = %96, %90
  %94 = load i32, ptr %7, align 4
  %95 = icmp sgt i32 %94, 0
  br i1 %95, label %96, label %127

96:                                               ; preds = %93
  %97 = load ptr, ptr %5, align 8
  %98 = getelementptr inbounds i8, ptr %97, i64 0
  %99 = load i8, ptr %98, align 1
  store i8 %99, ptr %11, align 1
  %100 = load ptr, ptr %5, align 8
  %101 = getelementptr inbounds i8, ptr %100, i64 1
  %102 = load i8, ptr %101, align 1
  store i8 %102, ptr %12, align 1
  %103 = load ptr, ptr %5, align 8
  %104 = getelementptr inbounds i8, ptr %103, i64 3
  %105 = load i8, ptr %104, align 1
  %106 = load ptr, ptr %6, align 8
  store i8 %105, ptr %106, align 1
  %107 = load ptr, ptr %6, align 8
  %108 = getelementptr inbounds i8, ptr %107, i32 1
  store ptr %108, ptr %6, align 8
  %109 = load ptr, ptr %5, align 8
  %110 = getelementptr inbounds i8, ptr %109, i64 2
  %111 = load i8, ptr %110, align 1
  %112 = load ptr, ptr %6, align 8
  store i8 %111, ptr %112, align 1
  %113 = load ptr, ptr %6, align 8
  %114 = getelementptr inbounds i8, ptr %113, i32 1
  store ptr %114, ptr %6, align 8
  %115 = load i8, ptr %12, align 1
  %116 = load ptr, ptr %6, align 8
  store i8 %115, ptr %116, align 1
  %117 = load ptr, ptr %6, align 8
  %118 = getelementptr inbounds i8, ptr %117, i32 1
  store ptr %118, ptr %6, align 8
  %119 = load i8, ptr %11, align 1
  %120 = load ptr, ptr %6, align 8
  store i8 %119, ptr %120, align 1
  %121 = load ptr, ptr %6, align 8
  %122 = getelementptr inbounds i8, ptr %121, i32 1
  store ptr %122, ptr %6, align 8
  %123 = load ptr, ptr %5, align 8
  %124 = getelementptr inbounds i8, ptr %123, i64 4
  store ptr %124, ptr %5, align 8
  %125 = load i32, ptr %7, align 4
  %126 = add nsw i32 %125, -1
  store i32 %126, ptr %7, align 4
  br label %93, !llvm.loop !10

127:                                              ; preds = %93
  br label %129

128:                                              ; preds = %4
  br label %129

129:                                              ; preds = %128, %127, %89, %56, %31
  ret void
}

; Function Attrs: nounwind uwtable
define i32 @Java_com_sun_media_sound_DirectAudioDevice_nRead(ptr noundef %0, ptr noundef %1, i64 noundef %2, ptr noundef %3, i32 noundef %4, i32 noundef %5, i32 noundef %6) #0 {
  %8 = alloca i32, align 4
  %9 = alloca ptr, align 8
  %10 = alloca ptr, align 8
  %11 = alloca i64, align 8
  %12 = alloca ptr, align 8
  %13 = alloca i32, align 4
  %14 = alloca i32, align 4
  %15 = alloca i32, align 4
  %16 = alloca i32, align 4
  %17 = alloca ptr, align 8
  %18 = alloca ptr, align 8
  %19 = alloca ptr, align 8
  store ptr %0, ptr %9, align 8
  store ptr %1, ptr %10, align 8
  store i64 %2, ptr %11, align 8
  store ptr %3, ptr %12, align 8
  store i32 %4, ptr %13, align 4
  store i32 %5, ptr %14, align 4
  store i32 %6, ptr %15, align 4
  store i32 -1, ptr %16, align 4
  %20 = load i64, ptr %11, align 8
  %21 = inttoptr i64 %20 to ptr
  store ptr %21, ptr %19, align 8
  %22 = load i32, ptr %13, align 4
  %23 = icmp slt i32 %22, 0
  br i1 %23, label %27, label %24

24:                                               ; preds = %7
  %25 = load i32, ptr %14, align 4
  %26 = icmp slt i32 %25, 0
  br i1 %26, label %27, label %29

27:                                               ; preds = %24, %7
  %28 = load i32, ptr %16, align 4
  store i32 %28, ptr %8, align 4
  br label %80

29:                                               ; preds = %24
  %30 = load ptr, ptr %19, align 8
  %31 = icmp ne ptr %30, null
  br i1 %31, label %32, label %78

32:                                               ; preds = %29
  %33 = load ptr, ptr %19, align 8
  %34 = getelementptr inbounds %struct.DAUDIO_Info, ptr %33, i32 0, i32 0
  %35 = load ptr, ptr %34, align 8
  %36 = icmp ne ptr %35, null
  br i1 %36, label %37, label %78

37:                                               ; preds = %32
  %38 = load ptr, ptr %9, align 8
  %39 = load ptr, ptr %38, align 8
  %40 = getelementptr inbounds %struct.JNINativeInterface_, ptr %39, i32 0, i32 184
  %41 = load ptr, ptr %40, align 8
  %42 = load ptr, ptr %9, align 8
  %43 = load ptr, ptr %12, align 8
  %44 = call ptr %41(ptr noundef %42, ptr noundef %43, ptr noundef null)
  store ptr %44, ptr %17, align 8
  br label %45

45:                                               ; preds = %37
  %46 = load ptr, ptr %17, align 8
  %47 = icmp eq ptr %46, null
  br i1 %47, label %48, label %50

48:                                               ; preds = %45
  %49 = load i32, ptr %16, align 4
  store i32 %49, ptr %8, align 4
  br label %80

50:                                               ; preds = %45
  br label %51

51:                                               ; preds = %50
  %52 = load ptr, ptr %17, align 8
  store ptr %52, ptr %18, align 8
  %53 = load i32, ptr %13, align 4
  %54 = load ptr, ptr %18, align 8
  %55 = sext i32 %53 to i64
  %56 = getelementptr inbounds i8, ptr %54, i64 %55
  store ptr %56, ptr %18, align 8
  %57 = load ptr, ptr %19, align 8
  %58 = getelementptr inbounds %struct.DAUDIO_Info, ptr %57, i32 0, i32 0
  %59 = load ptr, ptr %58, align 8
  %60 = load ptr, ptr %18, align 8
  %61 = load i32, ptr %14, align 4
  %62 = call i32 @DAUDIO_Read(ptr noundef %59, ptr noundef %60, i32 noundef %61)
  store i32 %62, ptr %16, align 4
  %63 = load i32, ptr %15, align 4
  %64 = icmp sgt i32 %63, 0
  br i1 %64, label %65, label %70

65:                                               ; preds = %51
  %66 = load ptr, ptr %18, align 8
  %67 = load ptr, ptr %18, align 8
  %68 = load i32, ptr %14, align 4
  %69 = load i32, ptr %15, align 4
  call void @handleSignEndianConversion(ptr noundef %66, ptr noundef %67, i32 noundef %68, i32 noundef %69)
  br label %70

70:                                               ; preds = %65, %51
  %71 = load ptr, ptr %9, align 8
  %72 = load ptr, ptr %71, align 8
  %73 = getelementptr inbounds %struct.JNINativeInterface_, ptr %72, i32 0, i32 192
  %74 = load ptr, ptr %73, align 8
  %75 = load ptr, ptr %9, align 8
  %76 = load ptr, ptr %12, align 8
  %77 = load ptr, ptr %17, align 8
  call void %74(ptr noundef %75, ptr noundef %76, ptr noundef %77, i32 noundef 0)
  br label %78

78:                                               ; preds = %70, %32, %29
  %79 = load i32, ptr %16, align 4
  store i32 %79, ptr %8, align 4
  br label %80

80:                                               ; preds = %78, %48, %27
  %81 = load i32, ptr %8, align 4
  ret i32 %81
}