; Function Attrs: nounwind uwtable
define i32 @Java_com_sun_media_sound_DirectAudioDevice_nRead(ptr noundef %0, ptr nocapture noundef readnone %1, i64 noundef %2, ptr noundef %3, i32 noundef %4, i32 noundef %5, i32 noundef %6) local_unnamed_addr #2 {
  %8 = inttoptr i64 %2 to ptr
  %9 = or i32 %5, %4
  %or.cond.not = icmp slt i32 %9, 0
  %.not = icmp eq i64 %2, 0
  %or.cond = or i1 %.not, %or.cond.not
  br i1 %or.cond, label %60, label %10

10:                                               ; preds = %7
  %11 = load ptr, ptr %8, align 8
  %.not34 = icmp eq ptr %11, null
  br i1 %.not34, label %60, label %12

12:                                               ; preds = %10
  %13 = load ptr, ptr %0, align 8
  %14 = getelementptr inbounds i8, ptr %13, i64 1472
  %15 = load ptr, ptr %14, align 8
  %16 = tail call ptr %15(ptr noundef nonnull %0, ptr noundef %3, ptr noundef null) #7
  %17 = icmp eq ptr %16, null
  br i1 %17, label %60, label %18

18:                                               ; preds = %12
  %19 = zext nneg i32 %4 to i64
  %20 = getelementptr inbounds i8, ptr %16, i64 %19
  %21 = load ptr, ptr %8, align 8
  %22 = tail call i32 @DAUDIO_Read(ptr noundef %21, ptr noundef nonnull %20, i32 noundef %5) #7
  %23 = icmp sgt i32 %6, 0
  br i1 %23, label %24, label %handleSignEndianConversion.exit

24:                                               ; preds = %18
  switch i32 %6, label %handleSignEndianConversion.exit [
    i32 1, label %.preheader.i
    i32 2, label %31
    i32 3, label %40
    i32 4, label %49
  ]

.preheader.i:                                     ; preds = %24
  %25 = icmp sgt i32 %5, 0
  br i1 %25, label %.lr.ph77.i, label %handleSignEndianConversion.exit

.lr.ph77.i:                                       ; preds = %.preheader.i, %.lr.ph77.i
  %.076.i = phi ptr [ %29, %.lr.ph77.i ], [ %20, %.preheader.i ]
  %.05674.i = phi i32 [ %28, %.lr.ph77.i ], [ %5, %.preheader.i ]
  %26 = load i8, ptr %.076.i, align 1
  %27 = xor i8 %26, -128
  store i8 %27, ptr %.076.i, align 1
  %28 = add nsw i32 %.05674.i, -1
  %29 = getelementptr i8, ptr %.076.i, i64 1
  %30 = icmp ugt i32 %.05674.i, 1
  br i1 %30, label %.lr.ph77.i, label %handleSignEndianConversion.exit, !llvm.loop !6

31:                                               ; preds = %24
  %32 = icmp sgt i32 %5, 1
  br i1 %32, label %.lr.ph73.preheader.i, label %handleSignEndianConversion.exit

.lr.ph73.preheader.i:                             ; preds = %31
  %33 = lshr i32 %5, 1
  br label %.lr.ph73.i

.lr.ph73.i:                                       ; preds = %.lr.ph73.i, %.lr.ph73.preheader.i
  %.172.i = phi ptr [ %38, %.lr.ph73.i ], [ %20, %.lr.ph73.preheader.i ]
  %.15770.i = phi i32 [ %37, %.lr.ph73.i ], [ %33, %.lr.ph73.preheader.i ]
  %34 = load i8, ptr %.172.i, align 1
  %35 = getelementptr inbounds i8, ptr %.172.i, i64 1
  %36 = load i8, ptr %35, align 1
  store i8 %36, ptr %.172.i, align 1
  store i8 %34, ptr %35, align 1
  %37 = add nsw i32 %.15770.i, -1
  %38 = getelementptr i8, ptr %.172.i, i64 2
  %39 = icmp ugt i32 %.15770.i, 1
  br i1 %39, label %.lr.ph73.i, label %handleSignEndianConversion.exit, !llvm.loop !8

40:                                               ; preds = %24
  %41 = icmp sgt i32 %5, 2
  br i1 %41, label %.lr.ph69.preheader.i, label %handleSignEndianConversion.exit

.lr.ph69.preheader.i:                             ; preds = %40
  %42 = udiv i32 %5, 3
  br label %.lr.ph69.i

.lr.ph69.i:                                       ; preds = %.lr.ph69.i, %.lr.ph69.preheader.i
  %.268.i = phi ptr [ %46, %.lr.ph69.i ], [ %20, %.lr.ph69.preheader.i ]
  %.25866.i = phi i32 [ %47, %.lr.ph69.i ], [ %42, %.lr.ph69.preheader.i ]
  %43 = load i8, ptr %.268.i, align 1
  %44 = getelementptr inbounds i8, ptr %.268.i, i64 2
  %45 = load i8, ptr %44, align 1
  store i8 %45, ptr %.268.i, align 1
  store i8 %43, ptr %44, align 1
  %46 = getelementptr i8, ptr %.268.i, i64 3
  %47 = add nsw i32 %.25866.i, -1
  %48 = icmp ugt i32 %.25866.i, 1
  br i1 %48, label %.lr.ph69.i, label %handleSignEndianConversion.exit, !llvm.loop !9

49:                                               ; preds = %24
  %50 = icmp sgt i32 %5, 3
  br i1 %50, label %.lr.ph.preheader.i, label %handleSignEndianConversion.exit

.lr.ph.preheader.i:                               ; preds = %49
  %51 = lshr i32 %5, 2
  br label %.lr.ph.i

.lr.ph.i:                                         ; preds = %.lr.ph.i, %.lr.ph.preheader.i
  %.365.i = phi ptr [ %54, %.lr.ph.i ], [ %20, %.lr.ph.preheader.i ]
  %.35963.i = phi i32 [ %55, %.lr.ph.i ], [ %51, %.lr.ph.preheader.i ]
  %52 = load <4 x i8>, ptr %.365.i, align 1
  %53 = shufflevector <4 x i8> %52, <4 x i8> poison, <4 x i32> <i32 3, i32 2, i32 1, i32 0>
  store <4 x i8> %53, ptr %.365.i, align 1
  %54 = getelementptr i8, ptr %.365.i, i64 4
  %55 = add nsw i32 %.35963.i, -1
  %56 = icmp ugt i32 %.35963.i, 1
  br i1 %56, label %.lr.ph.i, label %handleSignEndianConversion.exit, !llvm.loop !10

handleSignEndianConversion.exit:                  ; preds = %.lr.ph.i, %.lr.ph69.i, %.lr.ph73.i, %.lr.ph77.i, %49, %40, %31, %.preheader.i, %24, %18
  %57 = load ptr, ptr %0, align 8
  %58 = getelementptr inbounds i8, ptr %57, i64 1536
  %59 = load ptr, ptr %58, align 8
  tail call void %59(ptr noundef nonnull %0, ptr noundef %3, ptr noundef nonnull %16, i32 noundef 0) #7
  br label %60

60:                                               ; preds = %10, %handleSignEndianConversion.exit, %12, %7
  %.0 = phi i32 [ -1, %7 ], [ -1, %12 ], [ %22, %handleSignEndianConversion.exit ], [ -1, %10 ]
  ret i32 %.0
}